; Function Attrs: mustprogress uwtable
define hidden noundef zeroext i1 @_ZN3smt11farkas_util11is_int_sortEv(ptr noundef nonnull readonly align 8 captures(none) dereferenceable(128) %0) local_unnamed_addr #3 align 2 {
  %2 = getelementptr inbounds nuw i8, ptr %0, i64 32
  %3 = load ptr, ptr %2, align 8, !tbaa !52
  %4 = load ptr, ptr %3, align 8, !tbaa !53
  %5 = getelementptr inbounds nuw i8, ptr %4, i64 32
  %6 = load ptr, ptr %5, align 8, !tbaa !32
  %7 = tail call noundef ptr @_ZNK4expr8get_sortEv(ptr noundef nonnull align 4 dereferenceable(16) %6)
  %8 = getelementptr inbounds nuw i8, ptr %7, i64 24
  %9 = load ptr, ptr %8, align 8, !tbaa !34
  %10 = icmp eq ptr %9, null
  br i1 %10, label %_ZN3smt11farkas_util11is_int_sortEP3app.exit, label %_ZNK4decl13get_family_idEv.exit.thread.i.i.i.i.i

_ZNK4decl13get_family_idEv.exit.thread.i.i.i.i.i: ; preds = %1
  %11 = load i32, ptr %9, align 8, !tbaa !40
  %12 = icmp eq i32 %11, 5
  br i1 %12, label %13, label %_ZN3smt11farkas_util11is_int_sortEP3app.exit

13:                                               ; preds = %_ZNK4decl13get_family_idEv.exit.thread.i.i.i.i.i
  %14 = getelementptr inbounds nuw i8, ptr %9, i64 4
  %15 = load i32, ptr %14, align 4, !tbaa !44
  %16 = icmp eq i32 %15, 1
  br label %_ZN3smt11farkas_util11is_int_sortEP3app.exit

_ZN3smt11farkas_util11is_int_sortEP3app.exit:     ; preds = %1, %_ZNK4decl13get_family_idEv.exit.thread.i.i.i.i.i, %13
  %17 = phi i1 [ %16, %13 ], [ false, %_ZNK4decl13get_family_idEv.exit.thread.i.i.i.i.i ], [ false, %1 ]
  ret i1 %17
}